target datalayout = "e-m:e-p270:32:32-p271:32:32-p272:64:64-i64:64-i128:128-f80:128-n8:16:32:64-S128"
target triple = "x86_64-unknown-linux-gnu"

%struct.BlockLimits = type { i32, i64, i32, i64, i32, i32, i32, i64, i32, i64, i64, i32, i8, i32, i32, i32, i32, i32, i32, i32 }
%struct.BlockDriverState = type { i32, i8, i8, i8, i8, i8, ptr, ptr, ptr, %struct.anon.1, i8, [4096 x i8], [4096 x i8], [4096 x i8], [16 x i8], ptr, [4096 x i8], %struct.BlockLimits, i32, i32, i32, i32, [32 x i8], %union.anon, %union.anon.2, %union.anon.3, i32, [16 x %struct.anon.4], ptr, %struct.anon.5, ptr, ptr, %struct.anon.6, ptr, ptr, i32, ptr, i64, i64, %struct.QemuMutex, %struct.anon.7, %struct.Stat64, i32, i32, i32, i32, i32, i32, %struct.QemuMutex, %struct.anon.8, %struct.CoQueue, i8, i32, i8, %struct.CoMutex, ptr, ptr }
%struct.anon.1 = type { ptr }
%union.anon = type { %struct.QTailQLink }
%struct.QTailQLink = type { ptr, ptr }
%union.anon.2 = type { %struct.QTailQLink }
%union.anon.3 = type { %struct.QTailQLink }
%struct.anon.4 = type { ptr }
%struct.anon.5 = type { ptr }
%struct.anon.6 = type { ptr }
%struct.anon.7 = type { ptr }
%struct.Stat64 = type { i64 }
%struct.QemuMutex = type { %union.pthread_mutex_t, i8 }
%union.pthread_mutex_t = type { %struct.__pthread_mutex_s }
%struct.__pthread_mutex_s = type { i32, i32, i32, i32, i32, i16, i16, %struct.__pthread_internal_list }
%struct.__pthread_internal_list = type { ptr, ptr }
%struct.anon.8 = type { ptr }
%struct.CoQueue = type { %struct.anon.9 }
%struct.anon.9 = type { ptr, ptr }
%struct.CoMutex = type { i32, ptr, %struct.anon.10, %struct.anon.10, i32, i32, ptr }
%struct.anon.10 = type { ptr }
%struct.QEMUIOVector = type { ptr, i32, %union.anon.13 }
%union.anon.13 = type { %struct.anon.14 }
%struct.anon.14 = type { i32, %struct.iovec }
%struct.iovec = type { ptr, i64 }
%struct.BdrvRequestPadding = type { ptr, i64, ptr, i64, i64, i8, i8, %struct.QEMUIOVector, ptr, i64, %struct.QEMUIOVector }

@.str.1 = private unnamed_addr constant [19 x i8] c"../qemu/block/io.c\00", align 1
@error_abort = external global ptr, align 8
@.str.48 = private unnamed_addr constant [17 x i8] c"align <= INT_MAX\00", align 1
@__PRETTY_FUNCTION__.bdrv_init_padding = private unnamed_addr constant [91 x i8] c"_Bool bdrv_init_padding(BlockDriverState *, int64_t, int64_t, _Bool, BdrvRequestPadding *)\00", align 1
@.str.49 = private unnamed_addr constant [22 x i8] c"align <= SIZE_MAX / 2\00", align 1
@.str.50 = private unnamed_addr constant [6 x i8] c"bytes\00", align 1

; Function Attrs: nounwind sspstrong uwtable
define dso_local ptr @qemu_blockalign(ptr noundef %bs, i64 noundef %size) #0 {
entry:
  %bs.addr = alloca ptr, align 8
  %size.addr = alloca i64, align 8
  store ptr %bs, ptr %bs.addr, align 8
  store i64 %size, ptr %size.addr, align 8
  br label %do.body

do.body:                                          ; preds = %entry
  br label %do.end

do.end:                                           ; preds = %do.body
  %0 = load ptr, ptr %bs.addr, align 8
  %call = call i64 @bdrv_opt_mem_align(ptr noundef %0)
  %1 = load i64, ptr %size.addr, align 8
  %call1 = call ptr @qemu_memalign(i64 noundef %call, i64 noundef %1)
  ret ptr %call1
}

; Function Attrs: nounwind sspstrong uwtable
define dso_local i32 @bdrv_check_request(i64 noundef %offset, i64 noundef %bytes, ptr noundef %errp) #0 {
entry:
  %offset.addr = alloca i64, align 8
  %bytes.addr = alloca i64, align 8
  %errp.addr = alloca ptr, align 8
  store i64 %offset, ptr %offset.addr, align 8
  store i64 %bytes, ptr %bytes.addr, align 8
  store ptr %errp, ptr %errp.addr, align 8
  %0 = load i64, ptr %offset.addr, align 8
  %1 = load i64, ptr %bytes.addr, align 8
  %2 = load ptr, ptr %errp.addr, align 8
  %call = call i32 @bdrv_check_qiov_request(i64 noundef %0, i64 noundef %1, ptr noundef null, i64 noundef 0, ptr noundef %2)
  ret i32 %call
}

; Function Attrs: nounwind sspstrong uwtable
define internal zeroext i1 @bdrv_init_padding(ptr noundef %bs, i64 noundef %offset, i64 noundef %bytes, i1 noundef zeroext %write, ptr noundef %pad) #0 {
entry:
  %retval = alloca i1, align 1
  %bs.addr = alloca ptr, align 8
  %offset.addr = alloca i64, align 8
  %bytes.addr = alloca i64, align 8
  %write.addr = alloca i8, align 1
  %pad.addr = alloca ptr, align 8
  %align = alloca i64, align 8
  %sum = alloca i64, align 8
  store ptr %bs, ptr %bs.addr, align 8
  store i64 %offset, ptr %offset.addr, align 8
  store i64 %bytes, ptr %bytes.addr, align 8
  %frombool = zext i1 %write to i8
  store i8 %frombool, ptr %write.addr, align 1
  store ptr %pad, ptr %pad.addr, align 8
  %0 = load ptr, ptr %bs.addr, align 8
  %bl = getelementptr inbounds %struct.BlockDriverState, ptr %0, i32 0, i32 17
  %request_alignment = getelementptr inbounds %struct.BlockLimits, ptr %bl, i32 0, i32 0
  %1 = load i32, ptr %request_alignment, align 8
  %conv = zext i32 %1 to i64
  store i64 %conv, ptr %align, align 8
  %2 = load i64, ptr %offset.addr, align 8
  %3 = load i64, ptr %bytes.addr, align 8
  %call = call i32 @bdrv_check_request(i64 noundef %2, i64 noundef %3, ptr noundef @error_abort)
  %4 = load i64, ptr %align, align 8
  %cmp = icmp sle i64 %4, 2147483647
  br i1 %cmp, label %if.then, label %if.else

if.then:                                          ; preds = %entry
  br label %if.end

if.else:                                          ; preds = %entry
  call void @__assert_fail(ptr noundef @.str.48, ptr noundef @.str.1, i32 noundef 1510, ptr noundef @__PRETTY_FUNCTION__.bdrv_init_padding) #10
  unreachable

if.end:                                           ; preds = %if.then
  %5 = load i64, ptr %align, align 8
  %cmp2 = icmp ule i64 %5, 9223372036854775807
  br i1 %cmp2, label %if.then4, label %if.else5

if.then4:                                         ; preds = %if.end
  br label %if.end6

if.else5:                                         ; preds = %if.end
  call void @__assert_fail(ptr noundef @.str.49, ptr noundef @.str.1, i32 noundef 1511, ptr noundef @__PRETTY_FUNCTION__.bdrv_init_padding) #10
  unreachable

if.end6:                                          ; preds = %if.then4
  %6 = load ptr, ptr %pad.addr, align 8
  call void @llvm.memset.p0.i64(ptr align 8 %6, i8 0, i64 144, i1 false)
  %7 = load i64, ptr %offset.addr, align 8
  %8 = load i64, ptr %align, align 8
  %sub = sub i64 %8, 1
  %and = and i64 %7, %sub
  %9 = load ptr, ptr %pad.addr, align 8
  %head = getelementptr inbounds %struct.BdrvRequestPadding, ptr %9, i32 0, i32 3
  store i64 %and, ptr %head, align 8
  %10 = load i64, ptr %offset.addr, align 8
  %11 = load i64, ptr %bytes.addr, align 8
  %add = add i64 %10, %11
  %12 = load i64, ptr %align, align 8
  %sub7 = sub i64 %12, 1
  %and8 = and i64 %add, %sub7
  %13 = load ptr, ptr %pad.addr, align 8
  %tail = getelementptr inbounds %struct.BdrvRequestPadding, ptr %13, i32 0, i32 4
  store i64 %and8, ptr %tail, align 8
  %14 = load ptr, ptr %pad.addr, align 8
  %tail9 = getelementptr inbounds %struct.BdrvRequestPadding, ptr %14, i32 0, i32 4
  %15 = load i64, ptr %tail9, align 8
  %tobool = icmp ne i64 %15, 0
  br i1 %tobool, label %if.then10, label %if.end14

if.then10:                                        ; preds = %if.end6
  %16 = load i64, ptr %align, align 8
  %17 = load ptr, ptr %pad.addr, align 8
  %tail11 = getelementptr inbounds %struct.BdrvRequestPadding, ptr %17, i32 0, i32 4
  %18 = load i64, ptr %tail11, align 8
  %sub12 = sub i64 %16, %18
  %19 = load ptr, ptr %pad.addr, align 8
  %tail13 = getelementptr inbounds %struct.BdrvRequestPadding, ptr %19, i32 0, i32 4
  store i64 %sub12, ptr %tail13, align 8
  br label %if.end14

if.end14:                                         ; preds = %if.then10, %if.end6
  %20 = load ptr, ptr %pad.addr, align 8
  %head15 = getelementptr inbounds %struct.BdrvRequestPadding, ptr %20, i32 0, i32 3
  %21 = load i64, ptr %head15, align 8
  %tobool16 = icmp ne i64 %21, 0
  br i1 %tobool16, label %if.end20, label %land.lhs.true

land.lhs.true:                                    ; preds = %if.end14
  %22 = load ptr, ptr %pad.addr, align 8
  %tail17 = getelementptr inbounds %struct.BdrvRequestPadding, ptr %22, i32 0, i32 4
  %23 = load i64, ptr %tail17, align 8
  %tobool18 = icmp ne i64 %23, 0
  br i1 %tobool18, label %if.end20, label %if.then19

if.then19:                                        ; preds = %land.lhs.true
  store i1 false, ptr %retval, align 1
  br label %return

if.end20:                                         ; preds = %land.lhs.true, %if.end14
  %24 = load i64, ptr %bytes.addr, align 8
  %tobool21 = icmp ne i64 %24, 0
  br i1 %tobool21, label %if.then22, label %if.else23

if.then22:                                        ; preds = %if.end20
  br label %if.end24

if.else23:                                        ; preds = %if.end20
  call void @__assert_fail(ptr noundef @.str.50, ptr noundef @.str.1, i32 noundef 1525, ptr noundef @__PRETTY_FUNCTION__.bdrv_init_padding) #10
  unreachable

if.end24:                                         ; preds = %if.then22
  %25 = load ptr, ptr %pad.addr, align 8
  %head25 = getelementptr inbounds %struct.BdrvRequestPadding, ptr %25, i32 0, i32 3
  %26 = load i64, ptr %head25, align 8
  %27 = load i64, ptr %bytes.addr, align 8
  %add26 = add i64 %26, %27
  %28 = load ptr, ptr %pad.addr, align 8
  %tail27 = getelementptr inbounds %struct.BdrvRequestPadding, ptr %28, i32 0, i32 4
  %29 = load i64, ptr %tail27, align 8
  %add28 = add i64 %add26, %29
  store i64 %add28, ptr %sum, align 8
  %30 = load i64, ptr %sum, align 8
  %31 = load i64, ptr %align, align 8
  %cmp29 = icmp sgt i64 %30, %31
  br i1 %cmp29, label %land.lhs.true31, label %cond.false

land.lhs.true31:                                  ; preds = %if.end24
  %32 = load ptr, ptr %pad.addr, align 8
  %head32 = getelementptr inbounds %struct.BdrvRequestPadding, ptr %32, i32 0, i32 3
  %33 = load i64, ptr %head32, align 8
  %tobool33 = icmp ne i64 %33, 0
  br i1 %tobool33, label %land.lhs.true34, label %cond.false

land.lhs.true34:                                  ; preds = %land.lhs.true31
  %34 = load ptr, ptr %pad.addr, align 8
  %tail35 = getelementptr inbounds %struct.BdrvRequestPadding, ptr %34, i32 0, i32 4
  %35 = load i64, ptr %tail35, align 8
  %tobool36 = icmp ne i64 %35, 0
  br i1 %tobool36, label %cond.true, label %cond.false

cond.true:                                        ; preds = %land.lhs.true34
  %36 = load i64, ptr %align, align 8
  %mul = mul i64 2, %36
  br label %cond.end

cond.false:                                       ; preds = %land.lhs.true34, %land.lhs.true31, %if.end24
  %37 = load i64, ptr %align, align 8
  br label %cond.end

cond.end:                                         ; preds = %cond.false, %cond.true
  %cond = phi i64 [ %mul, %cond.true ], [ %37, %cond.false ]
  %38 = load ptr, ptr %pad.addr, align 8
  %buf_len = getelementptr inbounds %struct.BdrvRequestPadding, ptr %38, i32 0, i32 1
  store i64 %cond, ptr %buf_len, align 8
  %39 = load ptr, ptr %bs.addr, align 8
  %40 = load ptr, ptr %pad.addr, align 8
  %buf_len37 = getelementptr inbounds %struct.BdrvRequestPadding, ptr %40, i32 0, i32 1
  %41 = load i64, ptr %buf_len37, align 8
  %call38 = call ptr @qemu_blockalign(ptr noundef %39, i64 noundef %41)
  %42 = load ptr, ptr %pad.addr, align 8
  %buf = getelementptr inbounds %struct.BdrvRequestPadding, ptr %42, i32 0, i32 0
  store ptr %call38, ptr %buf, align 8
  %43 = load i64, ptr %sum, align 8
  %44 = load ptr, ptr %pad.addr, align 8
  %buf_len39 = getelementptr inbounds %struct.BdrvRequestPadding, ptr %44, i32 0, i32 1
  %45 = load i64, ptr %buf_len39, align 8
  %cmp40 = icmp eq i64 %43, %45
  %46 = load ptr, ptr %pad.addr, align 8
  %merge_reads = getelementptr inbounds %struct.BdrvRequestPadding, ptr %46, i32 0, i32 5
  %frombool42 = zext i1 %cmp40 to i8
  store i8 %frombool42, ptr %merge_reads, align 8
  %47 = load ptr, ptr %pad.addr, align 8
  %tail43 = getelementptr inbounds %struct.BdrvRequestPadding, ptr %47, i32 0, i32 4
  %48 = load i64, ptr %tail43, align 8
  %tobool44 = icmp ne i64 %48, 0
  br i1 %tobool44, label %if.then45, label %if.end49

if.then45:                                        ; preds = %cond.end
  %49 = load ptr, ptr %pad.addr, align 8
  %buf46 = getelementptr inbounds %struct.BdrvRequestPadding, ptr %49, i32 0, i32 0
  %50 = load ptr, ptr %buf46, align 8
  %51 = load ptr, ptr %pad.addr, align 8
  %buf_len47 = getelementptr inbounds %struct.BdrvRequestPadding, ptr %51, i32 0, i32 1
  %52 = load i64, ptr %buf_len47, align 8
  %add.ptr = getelementptr i8, ptr %50, i64 %52
  %53 = load i64, ptr %align, align 8
  %idx.neg = sub i64 0, %53
  %add.ptr48 = getelementptr i8, ptr %add.ptr, i64 %idx.neg
  %54 = load ptr, ptr %pad.addr, align 8
  %tail_buf = getelementptr inbounds %struct.BdrvRequestPadding, ptr %54, i32 0, i32 2
  store ptr %add.ptr48, ptr %tail_buf, align 8
  br label %if.end49

if.end49:                                         ; preds = %if.then45, %cond.end
  %55 = load i8, ptr %write.addr, align 1
  %tobool50 = trunc i8 %55 to i1
  %56 = load ptr, ptr %pad.addr, align 8
  %write51 = getelementptr inbounds %struct.BdrvRequestPadding, ptr %56, i32 0, i32 6
  %frombool52 = zext i1 %tobool50 to i8
  store i8 %frombool52, ptr %write51, align 1
  store i1 true, ptr %retval, align 1
  br label %return

return:                                           ; preds = %if.end49, %if.then19
  %57 = load i1, ptr %retval, align 1
  ret i1 %57
}