; Function Attrs: nounwind sspstrong uwtable
define internal fastcc noundef zeroext i1 @bdrv_init_padding(ptr noundef %bs, i64 noundef %offset, i64 noundef %bytes, i1 noundef zeroext %write, ptr noundef nonnull captures(none) %pad) unnamed_addr #0 {
entry:
  %frombool = zext i1 %write to i8
  %bl = getelementptr inbounds nuw i8, ptr %bs, i64 16464
  %0 = load i32, ptr %bl, align 8
  %conv = zext i32 %0 to i64
  %call.i = tail call range(i32 -5, 1) i32 @bdrv_check_qiov_request(i64 noundef %offset, i64 noundef %bytes, ptr noundef null, i64 noundef 0, ptr noundef nonnull @error_abort)
  %cmp = icmp sgt i32 %0, -1
  br i1 %cmp, label %if.end6, label %if.else

if.else:                                          ; preds = %entry
  tail call void @__assert_fail(ptr noundef nonnull @.str.48, ptr noundef nonnull @.str.1, i32 noundef 1510, ptr noundef nonnull @__PRETTY_FUNCTION__.bdrv_init_padding) #16
  unreachable

if.end6:                                          ; preds = %entry
  tail call void @llvm.memset.p0.i64(ptr noundef nonnull align 8 dereferenceable(144) %pad, i8 0, i64 144, i1 false)
  %sub = add nsw i64 %conv, -1
  %and = and i64 %sub, %offset
  %head = getelementptr inbounds nuw i8, ptr %pad, i64 24
  store i64 %and, ptr %head, align 8
  %add = add i64 %bytes, %offset
  %and8 = and i64 %sub, %add
  %tail = getelementptr inbounds nuw i8, ptr %pad, i64 32
  %tobool.not = icmp eq i64 %and8, 0
  %sub12 = sub i64 %conv, %and8
  %spec.select = select i1 %tobool.not, i64 0, i64 %sub12
  store i64 %spec.select, ptr %tail, align 8
  %tobool16.not = icmp eq i64 %and, 0
  %tobool18.not = icmp eq i64 %spec.select, 0
  %or.cond39 = select i1 %tobool16.not, i1 %tobool18.not, i1 false
  br i1 %or.cond39, label %return, label %if.end20

if.end20:                                         ; preds = %if.end6
  %tobool21.not = icmp eq i64 %bytes, 0
  br i1 %tobool21.not, label %if.else23, label %if.end24

if.else23:                                        ; preds = %if.end20
  tail call void @__assert_fail(ptr noundef nonnull @.str.50, ptr noundef nonnull @.str.1, i32 noundef 1525, ptr noundef nonnull @__PRETTY_FUNCTION__.bdrv_init_padding) #16
  unreachable

if.end24:                                         ; preds = %if.end20
  %add26 = add i64 %and, %bytes
  %add28 = add i64 %add26, %spec.select
  %cmp29 = icmp sle i64 %add28, %conv
  %1 = or i1 %tobool18.not, %cmp29
  %or.cond37 = or i1 %tobool16.not, %1
  %not.or.cond37 = xor i1 %or.cond37, true
  %mul = zext i1 %not.or.cond37 to i64
  %cond = shl nuw nsw i64 %conv, %mul
  %buf_len = getelementptr inbounds nuw i8, ptr %pad, i64 8
  store i64 %cond, ptr %buf_len, align 8
  %call.i38 = tail call i64 @bdrv_opt_mem_align(ptr noundef nonnull %bs) #15
  %call1.i = tail call ptr @qemu_memalign(i64 noundef %call.i38, i64 noundef %cond) #15
  store ptr %call1.i, ptr %pad, align 8
  %2 = load i64, ptr %buf_len, align 8
  %cmp40 = icmp eq i64 %add28, %2
  %merge_reads = getelementptr inbounds nuw i8, ptr %pad, i64 40
  %frombool42 = zext i1 %cmp40 to i8
  store i8 %frombool42, ptr %merge_reads, align 8
  %3 = load i64, ptr %tail, align 8
  %tobool44.not = icmp eq i64 %3, 0
  br i1 %tobool44.not, label %if.end49, label %if.then45

if.then45:                                        ; preds = %if.end24
  %add.ptr = getelementptr i8, ptr %call1.i, i64 %2
  %idx.neg = sub nsw i64 0, %conv
  %add.ptr48 = getelementptr i8, ptr %add.ptr, i64 %idx.neg
  %tail_buf = getelementptr inbounds nuw i8, ptr %pad, i64 16
  store ptr %add.ptr48, ptr %tail_buf, align 8
  br label %if.end49

if.end49:                                         ; preds = %if.then45, %if.end24
  %write51 = getelementptr inbounds nuw i8, ptr %pad, i64 41
  store i8 %frombool, ptr %write51, align 1
  br label %return

return:                                           ; preds = %if.end6, %if.end49
  %retval.0 = xor i1 %or.cond39, true
  ret i1 %retval.0
}